target datalayout = "e-m:e-p270:32:32-p271:32:32-p272:64:64-i64:64-i128:128-f80:128-n8:16:32:64-S128"
target triple = "x86_64-pc-linux-gnu"

%struct.gz_state = type { %struct.gzFile_s, i32, i32, ptr, i32, i32, ptr, ptr, i32, i32, i64, i32, i32, i32, i32, i64, i32, i32, ptr, %struct.z_stream_s }
%struct.gzFile_s = type { i32, ptr, i64 }
%struct.z_stream_s = type { ptr, i32, i64, ptr, i32, i64, ptr, ptr, ptr, ptr, ptr, i32, i64, i64, i32 }

; Function Attrs: nounwind uwtable
define internal i32 @gz_zero(ptr noundef %0, i64 noundef %1) #0 {
  %3 = alloca i32, align 4
  %4 = alloca ptr, align 8
  %5 = alloca i64, align 8
  %6 = alloca i32, align 4
  %7 = alloca i32, align 4
  %8 = alloca ptr, align 8
  %9 = alloca i32, align 4
  store ptr %0, ptr %4, align 8, !tbaa !8
  store i64 %1, ptr %5, align 8, !tbaa !41
  call void @llvm.lifetime.start.p0(i64 4, ptr %6) #10
  call void @llvm.lifetime.start.p0(i64 4, ptr %7) #10
  call void @llvm.lifetime.start.p0(i64 8, ptr %8) #10
  %10 = load ptr, ptr %4, align 8, !tbaa !8
  %11 = getelementptr inbounds nuw %struct.gz_state, ptr %10, i32 0, i32 19
  store ptr %11, ptr %8, align 8, !tbaa !11
  %12 = load ptr, ptr %8, align 8, !tbaa !11
  %13 = getelementptr inbounds nuw %struct.z_stream_s, ptr %12, i32 0, i32 1
  %14 = load i32, ptr %13, align 8, !tbaa !24
  %15 = icmp ne i32 %14, 0
  br i1 %15, label %16, label %21

16:                                               ; preds = %2
  %17 = load ptr, ptr %4, align 8, !tbaa !8
  %18 = call i32 @gz_comp(ptr noundef %17, i32 noundef 0)
  %19 = icmp eq i32 %18, -1
  br i1 %19, label %20, label %21

20:                                               ; preds = %16
  store i32 -1, ptr %3, align 4
  store i32 1, ptr %9, align 4
  br label %75

21:                                               ; preds = %16, %2
  store i32 1, ptr %6, align 4, !tbaa !9
  br label %22

22:                                               ; preds = %69, %21
  %23 = load i64, ptr %5, align 8, !tbaa !41
  %24 = icmp ne i64 %23, 0
  br i1 %24, label %25, label %74

25:                                               ; preds = %22
  %26 = load ptr, ptr %4, align 8, !tbaa !8
  %27 = getelementptr inbounds nuw %struct.gz_state, ptr %26, i32 0, i32 4
  %28 = load i32, ptr %27, align 8, !tbaa !21
  %29 = zext i32 %28 to i64
  %30 = load i64, ptr %5, align 8, !tbaa !41
  %31 = icmp sgt i64 %29, %30
  br i1 %31, label %32, label %35

32:                                               ; preds = %25
  %33 = load i64, ptr %5, align 8, !tbaa !41
  %34 = trunc i64 %33 to i32
  br label %39

35:                                               ; preds = %25
  %36 = load ptr, ptr %4, align 8, !tbaa !8
  %37 = getelementptr inbounds nuw %struct.gz_state, ptr %36, i32 0, i32 4
  %38 = load i32, ptr %37, align 8, !tbaa !21
  br label %39

39:                                               ; preds = %35, %32
  %40 = phi i32 [ %34, %32 ], [ %38, %35 ]
  store i32 %40, ptr %7, align 4, !tbaa !9
  %41 = load i32, ptr %6, align 4, !tbaa !9
  %42 = icmp ne i32 %41, 0
  br i1 %42, label %43, label %49

43:                                               ; preds = %39
  %44 = load ptr, ptr %4, align 8, !tbaa !8
  %45 = getelementptr inbounds nuw %struct.gz_state, ptr %44, i32 0, i32 6
  %46 = load ptr, ptr %45, align 8, !tbaa !25
  %47 = load i32, ptr %7, align 4, !tbaa !9
  %48 = zext i32 %47 to i64
  call void @llvm.memset.p0.i64(ptr align 1 %46, i8 0, i64 %48, i1 false)
  store i32 0, ptr %6, align 4, !tbaa !9
  br label %49

49:                                               ; preds = %43, %39
  %50 = load i32, ptr %7, align 4, !tbaa !9
  %51 = load ptr, ptr %8, align 8, !tbaa !11
  %52 = getelementptr inbounds nuw %struct.z_stream_s, ptr %51, i32 0, i32 1
  store i32 %50, ptr %52, align 8, !tbaa !24
  %53 = load ptr, ptr %4, align 8, !tbaa !8
  %54 = getelementptr inbounds nuw %struct.gz_state, ptr %53, i32 0, i32 6
  %55 = load ptr, ptr %54, align 8, !tbaa !25
  %56 = load ptr, ptr %8, align 8, !tbaa !11
  %57 = getelementptr inbounds nuw %struct.z_stream_s, ptr %56, i32 0, i32 0
  store ptr %55, ptr %57, align 8, !tbaa !26
  %58 = load i32, ptr %7, align 4, !tbaa !9
  %59 = zext i32 %58 to i64
  %60 = load ptr, ptr %4, align 8, !tbaa !8
  %61 = getelementptr inbounds nuw %struct.gz_state, ptr %60, i32 0, i32 0
  %62 = getelementptr inbounds nuw %struct.gzFile_s, ptr %61, i32 0, i32 2
  %63 = load i64, ptr %62, align 8, !tbaa !27
  %64 = add nsw i64 %63, %59
  store i64 %64, ptr %62, align 8, !tbaa !27
  %65 = load ptr, ptr %4, align 8, !tbaa !8
  %66 = call i32 @gz_comp(ptr noundef %65, i32 noundef 0)
  %67 = icmp eq i32 %66, -1
  br i1 %67, label %68, label %69

68:                                               ; preds = %49
  store i32 -1, ptr %3, align 4
  store i32 1, ptr %9, align 4
  br label %75

69:                                               ; preds = %49
  %70 = load i32, ptr %7, align 4, !tbaa !9
  %71 = zext i32 %70 to i64
  %72 = load i64, ptr %5, align 8, !tbaa !41
  %73 = sub nsw i64 %72, %71
  store i64 %73, ptr %5, align 8, !tbaa !41
  br label %22, !llvm.loop !42

74:                                               ; preds = %22
  store i32 0, ptr %3, align 4
  store i32 1, ptr %9, align 4
  br label %75

75:                                               ; preds = %74, %68, %20
  call void @llvm.lifetime.end.p0(i64 8, ptr %8) #10
  call void @llvm.lifetime.end.p0(i64 4, ptr %7) #10
  call void @llvm.lifetime.end.p0(i64 4, ptr %6) #10
  %76 = load i32, ptr %3, align 4
  ret i32 %76
}

; Function Attrs: nounwind uwtable
define i32 @MOZ_Z_gzsetparams(ptr noundef %0, i32 noundef %1, i32 noundef %2) #0 {
  %4 = alloca i32, align 4
  %5 = alloca ptr, align 8
  %6 = alloca i32, align 4
  %7 = alloca i32, align 4
  %8 = alloca ptr, align 8
  %9 = alloca ptr, align 8
  %10 = alloca i32, align 4
  store ptr %0, ptr %5, align 8, !tbaa !3
  store i32 %1, ptr %6, align 4, !tbaa !9
  store i32 %2, ptr %7, align 4, !tbaa !9
  call void @llvm.lifetime.start.p0(i64 8, ptr %8) #10
  call void @llvm.lifetime.start.p0(i64 8, ptr %9) #10
  %11 = load ptr, ptr %5, align 8, !tbaa !3
  %12 = icmp eq ptr %11, null
  br i1 %12, label %13, label %14

13:                                               ; preds = %3
  store i32 -2, ptr %4, align 4
  store i32 1, ptr %10, align 4
  br label %87

14:                                               ; preds = %3
  %15 = load ptr, ptr %5, align 8, !tbaa !3
  store ptr %15, ptr %8, align 8, !tbaa !8
  %16 = load ptr, ptr %8, align 8, !tbaa !8
  %17 = getelementptr inbounds nuw %struct.gz_state, ptr %16, i32 0, i32 19
  store ptr %17, ptr %9, align 8, !tbaa !11
  %18 = load ptr, ptr %8, align 8, !tbaa !8
  %19 = getelementptr inbounds nuw %struct.gz_state, ptr %18, i32 0, i32 1
  %20 = load i32, ptr %19, align 8, !tbaa !13
  %21 = icmp ne i32 %20, 31153
  br i1 %21, label %27, label %22

22:                                               ; preds = %14
  %23 = load ptr, ptr %8, align 8, !tbaa !8
  %24 = getelementptr inbounds nuw %struct.gz_state, ptr %23, i32 0, i32 17
  %25 = load i32, ptr %24, align 4, !tbaa !20
  %26 = icmp ne i32 %25, 0
  br i1 %26, label %27, label %28

27:                                               ; preds = %22, %14
  store i32 -2, ptr %4, align 4
  store i32 1, ptr %10, align 4
  br label %87

28:                                               ; preds = %22
  %29 = load i32, ptr %6, align 4, !tbaa !9
  %30 = load ptr, ptr %8, align 8, !tbaa !8
  %31 = getelementptr inbounds nuw %struct.gz_state, ptr %30, i32 0, i32 13
  %32 = load i32, ptr %31, align 8, !tbaa !36
  %33 = icmp eq i32 %29, %32
  br i1 %33, label %34, label %41

34:                                               ; preds = %28
  %35 = load i32, ptr %7, align 4, !tbaa !9
  %36 = load ptr, ptr %8, align 8, !tbaa !8
  %37 = getelementptr inbounds nuw %struct.gz_state, ptr %36, i32 0, i32 14
  %38 = load i32, ptr %37, align 4, !tbaa !37
  %39 = icmp eq i32 %35, %38
  br i1 %39, label %40, label %41

40:                                               ; preds = %34
  store i32 0, ptr %4, align 4
  store i32 1, ptr %10, align 4
  br label %87

41:                                               ; preds = %34, %28
  %42 = load ptr, ptr %8, align 8, !tbaa !8
  %43 = getelementptr inbounds nuw %struct.gz_state, ptr %42, i32 0, i32 16
  %44 = load i32, ptr %43, align 8, !tbaa !22
  %45 = icmp ne i32 %44, 0
  br i1 %45, label %46, label %57

46:                                               ; preds = %41
  %47 = load ptr, ptr %8, align 8, !tbaa !8
  %48 = getelementptr inbounds nuw %struct.gz_state, ptr %47, i32 0, i32 16
  store i32 0, ptr %48, align 8, !tbaa !22
  %49 = load ptr, ptr %8, align 8, !tbaa !8
  %50 = load ptr, ptr %8, align 8, !tbaa !8
  %51 = getelementptr inbounds nuw %struct.gz_state, ptr %50, i32 0, i32 15
  %52 = load i64, ptr %51, align 8, !tbaa !23
  %53 = call i32 @gz_zero(ptr noundef %49, i64 noundef %52)
  %54 = icmp eq i32 %53, -1
  br i1 %54, label %55, label %56

55:                                               ; preds = %46
  store i32 -1, ptr %4, align 4
  store i32 1, ptr %10, align 4
  br label %87

56:                                               ; preds = %46
  br label %57

57:                                               ; preds = %56, %41
  %58 = load ptr, ptr %8, align 8, !tbaa !8
  %59 = getelementptr inbounds nuw %struct.gz_state, ptr %58, i32 0, i32 4
  %60 = load i32, ptr %59, align 8, !tbaa !21
  %61 = icmp ne i32 %60, 0
  br i1 %61, label %62, label %80

62:                                               ; preds = %57
  %63 = load ptr, ptr %9, align 8, !tbaa !11
  %64 = getelementptr inbounds nuw %struct.z_stream_s, ptr %63, i32 0, i32 1
  %65 = load i32, ptr %64, align 8, !tbaa !24
  %66 = icmp ne i32 %65, 0
  br i1 %66, label %67, label %75

67:                                               ; preds = %62
  %68 = load ptr, ptr %8, align 8, !tbaa !8
  %69 = call i32 @gz_comp(ptr noundef %68, i32 noundef 1)
  %70 = icmp eq i32 %69, -1
  br i1 %70, label %71, label %75

71:                                               ; preds = %67
  %72 = load ptr, ptr %8, align 8, !tbaa !8
  %73 = getelementptr inbounds nuw %struct.gz_state, ptr %72, i32 0, i32 17
  %74 = load i32, ptr %73, align 4, !tbaa !20
  store i32 %74, ptr %4, align 4
  store i32 1, ptr %10, align 4
  br label %87

75:                                               ; preds = %67, %62
  %76 = load ptr, ptr %9, align 8, !tbaa !11
  %77 = load i32, ptr %6, align 4, !tbaa !9
  %78 = load i32, ptr %7, align 4, !tbaa !9
  %79 = call i32 @MOZ_Z_deflateParams(ptr noundef %76, i32 noundef %77, i32 noundef %78)
  br label %80

80:                                               ; preds = %75, %57
  %81 = load i32, ptr %6, align 4, !tbaa !9
  %82 = load ptr, ptr %8, align 8, !tbaa !8
  %83 = getelementptr inbounds nuw %struct.gz_state, ptr %82, i32 0, i32 13
  store i32 %81, ptr %83, align 8, !tbaa !36
  %84 = load i32, ptr %7, align 4, !tbaa !9
  %85 = load ptr, ptr %8, align 8, !tbaa !8
  %86 = getelementptr inbounds nuw %struct.gz_state, ptr %85, i32 0, i32 14
  store i32 %84, ptr %86, align 4, !tbaa !37
  store i32 0, ptr %4, align 4
  store i32 1, ptr %10, align 4
  br label %87

87:                                               ; preds = %80, %71, %55, %40, %27, %13
  call void @llvm.lifetime.end.p0(i64 8, ptr %9) #10
  call void @llvm.lifetime.end.p0(i64 8, ptr %8) #10
  %88 = load i32, ptr %4, align 4
  ret i32 %88
}