; Function Attrs: nounwind uwtable
define i32 @MOZ_Z_gzsetparams(ptr noundef %0, i32 noundef %1, i32 noundef %2) local_unnamed_addr #0 {
  %4 = icmp eq ptr %0, null
  br i1 %4, label %gz_zero.exit.thread, label %5

5:                                                ; preds = %3
  %6 = getelementptr inbounds nuw i8, ptr %0, i64 120
  %7 = getelementptr inbounds nuw i8, ptr %0, i64 24
  %8 = load i32, ptr %7, align 8, !tbaa !3
  %.not = icmp eq i32 %8, 31153
  br i1 %.not, label %9, label %gz_zero.exit.thread

9:                                                ; preds = %5
  %10 = getelementptr inbounds nuw i8, ptr %0, i64 108
  %11 = load i32, ptr %10, align 4, !tbaa !14
  %.not25 = icmp eq i32 %11, 0
  br i1 %.not25, label %12, label %gz_zero.exit.thread

12:                                               ; preds = %9
  %13 = getelementptr inbounds nuw i8, ptr %0, i64 88
  %14 = load i32, ptr %13, align 8, !tbaa !28
  %15 = icmp eq i32 %1, %14
  br i1 %15, label %16, label %20

16:                                               ; preds = %12
  %17 = getelementptr inbounds nuw i8, ptr %0, i64 92
  %18 = load i32, ptr %17, align 4, !tbaa !29
  %19 = icmp eq i32 %2, %18
  br i1 %19, label %gz_zero.exit.thread, label %20

20:                                               ; preds = %16, %12
  %21 = getelementptr inbounds nuw i8, ptr %0, i64 104
  %22 = load i32, ptr %21, align 8, !tbaa !16
  %.not26 = icmp eq i32 %22, 0
  br i1 %.not26, label %gz_zero.exit, label %23

23:                                               ; preds = %20
  store i32 0, ptr %21, align 8, !tbaa !16
  %24 = getelementptr inbounds nuw i8, ptr %0, i64 96
  %25 = load i64, ptr %24, align 8, !tbaa !17
  %26 = getelementptr inbounds nuw i8, ptr %0, i64 128
  %27 = load i32, ptr %26, align 8, !tbaa !18
  %.not.i = icmp eq i32 %27, 0
  br i1 %.not.i, label %31, label %28

28:                                               ; preds = %23
  %29 = tail call fastcc i32 @gz_comp(ptr noundef nonnull %0, i32 noundef 0)
  %30 = icmp eq i32 %29, -1
  br i1 %30, label %gz_zero.exit.thread, label %31

31:                                               ; preds = %28, %23
  %.not2224.i = icmp eq i64 %25, 0
  br i1 %.not2224.i, label %gz_zero.exit, label %.lr.ph.i

.lr.ph.i:                                         ; preds = %31
  %32 = getelementptr inbounds nuw i8, ptr %0, i64 40
  %33 = getelementptr inbounds nuw i8, ptr %0, i64 48
  %34 = getelementptr inbounds nuw i8, ptr %0, i64 16
  br label %37

35:                                               ; preds = %45
  %36 = sub nsw i64 %.02026.i, %.pre-phi.i
  %.not22.i = icmp eq i64 %36, 0
  br i1 %.not22.i, label %gz_zero.exit, label %37, !llvm.loop !19

37:                                               ; preds = %35, %.lr.ph.i
  %.02026.i = phi i64 [ %25, %.lr.ph.i ], [ %36, %35 ]
  %.not2325.i = phi i1 [ false, %.lr.ph.i ], [ true, %35 ]
  %38 = load i32, ptr %32, align 8, !tbaa !15
  %39 = zext i32 %38 to i64
  %40 = tail call i64 @llvm.smin.i64(i64 %.02026.i, i64 %39)
  %41 = trunc i64 %40 to i32
  br i1 %.not2325.i, label %._crit_edge.i, label %42

._crit_edge.i:                                    ; preds = %37
  %.pre.i = and i64 %40, 4294967295
  br label %45

42:                                               ; preds = %37
  %43 = load ptr, ptr %33, align 8, !tbaa !21
  %44 = and i64 %40, 4294967295
  tail call void @llvm.memset.p0.i64(ptr align 1 %43, i8 0, i64 %44, i1 false)
  br label %45

45:                                               ; preds = %42, %._crit_edge.i
  %.pre-phi.i = phi i64 [ %.pre.i, %._crit_edge.i ], [ %44, %42 ]
  store i32 %41, ptr %26, align 8, !tbaa !18
  %46 = load ptr, ptr %33, align 8, !tbaa !21
  store ptr %46, ptr %6, align 8, !tbaa !22
  %47 = load i64, ptr %34, align 8, !tbaa !23
  %48 = add nsw i64 %47, %.pre-phi.i
  store i64 %48, ptr %34, align 8, !tbaa !23
  %49 = tail call fastcc i32 @gz_comp(ptr noundef nonnull %0, i32 noundef 0)
  %50 = icmp eq i32 %49, -1
  br i1 %50, label %gz_zero.exit.thread, label %35

gz_zero.exit:                                     ; preds = %35, %31, %20
  %51 = getelementptr inbounds nuw i8, ptr %0, i64 40
  %52 = load i32, ptr %51, align 8, !tbaa !15
  %.not27 = icmp eq i32 %52, 0
  br i1 %.not27, label %63, label %53

53:                                               ; preds = %gz_zero.exit
  %54 = getelementptr inbounds nuw i8, ptr %0, i64 128
  %55 = load i32, ptr %54, align 8, !tbaa !18
  %.not28 = icmp eq i32 %55, 0
  br i1 %.not28, label %61, label %56

56:                                               ; preds = %53
  %57 = tail call fastcc i32 @gz_comp(ptr noundef %0, i32 noundef 1)
  %58 = icmp eq i32 %57, -1
  br i1 %58, label %59, label %61

59:                                               ; preds = %56
  %60 = load i32, ptr %10, align 4, !tbaa !14
  br label %gz_zero.exit.thread

61:                                               ; preds = %56, %53
  %62 = tail call i32 @MOZ_Z_deflateParams(ptr noundef nonnull %6, i32 noundef %1, i32 noundef %2) #14
  br label %63

63:                                               ; preds = %61, %gz_zero.exit
  store i32 %1, ptr %13, align 8, !tbaa !28
  %64 = getelementptr inbounds nuw i8, ptr %0, i64 92
  store i32 %2, ptr %64, align 4, !tbaa !29
  br label %gz_zero.exit.thread

gz_zero.exit.thread:                              ; preds = %45, %28, %16, %5, %9, %3, %63, %59
  %.0 = phi i32 [ %60, %59 ], [ 0, %63 ], [ -2, %3 ], [ -2, %9 ], [ -2, %5 ], [ 0, %16 ], [ -1, %28 ], [ -1, %45 ]
  ret i32 %.0
}